target datalayout = "e-m:e-p270:32:32-p271:32:32-p272:64:64-i64:64-i128:128-f80:128-n8:16:32:64-S128"
target triple = "x86_64-pc-linux-gnu"

%struct.anon.0 = type { i64, i64, ptr }

@.str.11 = private unnamed_addr constant [36 x i8] c"../openssl/test/sparse_array_test.c\00", align 1
@.str.12 = private unnamed_addr constant [24 x i8] c"sa = ossl_sa_char_new()\00", align 1
@.str.16 = private unnamed_addr constant [45 x i8] c"ossl_sa_char_set(sa, cases[i].n, cases[i].v)\00", align 1
@.str.24 = private unnamed_addr constant [23 x i8] c"ossl_sa_char_num(NULL)\00", align 1
@.str.25 = private unnamed_addr constant [2 x i8] c"0\00", align 1
@.str.26 = private unnamed_addr constant [21 x i8] c"ossl_sa_char_num(sa)\00", align 1
@.str.27 = private unnamed_addr constant [13 x i8] c"cases[i].num\00", align 1

; Function Attrs: inlinehint nounwind uwtable
define internal void @ossl_sa_char_free(ptr noundef %0) #3 {
  %2 = alloca ptr, align 8
  store ptr %0, ptr %2, align 8, !tbaa !8
  %3 = load ptr, ptr %2, align 8, !tbaa !8
  call void @ossl_sa_free(ptr noundef %3)
  ret void
}

; Function Attrs: inlinehint nounwind uwtable
define internal i32 @ossl_sa_char_set(ptr noundef %0, i64 noundef %1, ptr noundef %2) #3 {
  %4 = alloca ptr, align 8
  %5 = alloca i64, align 8
  %6 = alloca ptr, align 8
  store ptr %0, ptr %4, align 8, !tbaa !8
  store i64 %1, ptr %5, align 8, !tbaa !11
  store ptr %2, ptr %6, align 8, !tbaa !36
  %7 = load ptr, ptr %4, align 8, !tbaa !8
  %8 = load i64, ptr %5, align 8, !tbaa !11
  %9 = load ptr, ptr %6, align 8, !tbaa !36
  %10 = call i32 @ossl_sa_set(ptr noundef %7, i64 noundef %8, ptr noundef %9)
  ret i32 %10
}

; Function Attrs: inlinehint nounwind uwtable
define internal ptr @ossl_sa_char_new() #3 {
  %1 = call ptr @ossl_sa_new()
  ret ptr %1
}

; Function Attrs: inlinehint nounwind uwtable
define internal i64 @ossl_sa_char_num(ptr noundef %0) #3 {
  %2 = alloca ptr, align 8
  store ptr %0, ptr %2, align 8, !tbaa !8
  %3 = load ptr, ptr %2, align 8, !tbaa !8
  %4 = call i64 @ossl_sa_num(ptr noundef %3)
  ret i64 %4
}

; Function Attrs: nounwind uwtable
define internal i32 @test_sparse_array_num() #0 {
  %1 = alloca ptr, align 8
  %2 = alloca i64, align 8
  %3 = alloca i32, align 4
  call void @llvm.lifetime.start.p0(i64 8, ptr %1) #5
  store ptr null, ptr %1, align 8, !tbaa !8
  call void @llvm.lifetime.start.p0(i64 8, ptr %2) #5
  call void @llvm.lifetime.start.p0(i64 4, ptr %3) #5
  store i32 0, ptr %3, align 4, !tbaa !4
  %4 = call i64 @ossl_sa_char_num(ptr noundef null)
  %5 = call i32 @test_size_t_eq(ptr noundef @.str.11, i32 noundef 83, ptr noundef @.str.24, ptr noundef @.str.25, i64 noundef %4, i64 noundef 0)
  %6 = icmp ne i32 %5, 0
  br i1 %6, label %7, label %16

7:                                                ; preds = %0
  %8 = call ptr @ossl_sa_char_new()
  store ptr %8, ptr %1, align 8, !tbaa !8
  %9 = call i32 @test_ptr(ptr noundef @.str.11, i32 noundef 84, ptr noundef @.str.12, ptr noundef %8)
  %10 = icmp ne i32 %9, 0
  br i1 %10, label %11, label %16

11:                                               ; preds = %7
  %12 = load ptr, ptr %1, align 8, !tbaa !8
  %13 = call i64 @ossl_sa_char_num(ptr noundef %12)
  %14 = call i32 @test_size_t_eq(ptr noundef @.str.11, i32 noundef 85, ptr noundef @.str.26, ptr noundef @.str.25, i64 noundef %13, i64 noundef 0)
  %15 = icmp ne i32 %14, 0
  br i1 %15, label %17, label %16

16:                                               ; preds = %11, %7, %0
  br label %51

17:                                               ; preds = %11
  store i64 0, ptr %2, align 8, !tbaa !11
  br label %18

18:                                               ; preds = %47, %17
  %19 = load i64, ptr %2, align 8, !tbaa !11
  %20 = icmp ult i64 %19, 16
  br i1 %20, label %21, label %50

21:                                               ; preds = %18
  %22 = load ptr, ptr %1, align 8, !tbaa !8
  %23 = load i64, ptr %2, align 8, !tbaa !11
  %24 = getelementptr inbounds nuw [16 x %struct.anon.0], ptr @test_sparse_array_num.cases, i64 0, i64 %23
  %25 = getelementptr inbounds nuw %struct.anon.0, ptr %24, i32 0, i32 1
  %26 = load i64, ptr %25, align 8, !tbaa !20
  %27 = load i64, ptr %2, align 8, !tbaa !11
  %28 = getelementptr inbounds nuw [16 x %struct.anon.0], ptr @test_sparse_array_num.cases, i64 0, i64 %27
  %29 = getelementptr inbounds nuw %struct.anon.0, ptr %28, i32 0, i32 2
  %30 = load ptr, ptr %29, align 8, !tbaa !22
  %31 = call i32 @ossl_sa_char_set(ptr noundef %22, i64 noundef %26, ptr noundef %30)
  %32 = icmp ne i32 %31, 0
  %33 = zext i1 %32 to i32
  %34 = call i32 @test_true(ptr noundef @.str.11, i32 noundef 88, ptr noundef @.str.16, i32 noundef %33)
  %35 = icmp ne i32 %34, 0
  br i1 %35, label %36, label %45

36:                                               ; preds = %21
  %37 = load ptr, ptr %1, align 8, !tbaa !8
  %38 = call i64 @ossl_sa_char_num(ptr noundef %37)
  %39 = load i64, ptr %2, align 8, !tbaa !11
  %40 = getelementptr inbounds nuw [16 x %struct.anon.0], ptr @test_sparse_array_num.cases, i64 0, i64 %39
  %41 = getelementptr inbounds nuw %struct.anon.0, ptr %40, i32 0, i32 0
  %42 = load i64, ptr %41, align 8, !tbaa !23
  %43 = call i32 @test_size_t_eq(ptr noundef @.str.11, i32 noundef 89, ptr noundef @.str.26, ptr noundef @.str.27, i64 noundef %38, i64 noundef %42)
  %44 = icmp ne i32 %43, 0
  br i1 %44, label %46, label %45

45:                                               ; preds = %36, %21
  br label %51

46:                                               ; preds = %36
  br label %47

47:                                               ; preds = %46
  %48 = load i64, ptr %2, align 8, !tbaa !11
  %49 = add i64 %48, 1
  store i64 %49, ptr %2, align 8, !tbaa !11
  br label %18, !llvm.loop !24

50:                                               ; preds = %18
  store i32 1, ptr %3, align 4, !tbaa !4
  br label %51

51:                                               ; preds = %50, %45, %16
  %52 = load ptr, ptr %1, align 8, !tbaa !8
  call void @ossl_sa_char_free(ptr noundef %52)
  %53 = load i32, ptr %3, align 4, !tbaa !4
  call void @llvm.lifetime.end.p0(i64 4, ptr %3) #5
  call void @llvm.lifetime.end.p0(i64 8, ptr %2) #5
  call void @llvm.lifetime.end.p0(i64 8, ptr %1) #5
  ret i32 %53
}