; Function Attrs: nounwind uwtable
define internal range(i32 0, 2) i32 @test_sparse_array_num() #0 {
  %1 = tail call i64 @ossl_sa_num(ptr noundef null) #4
  %2 = tail call i32 @test_size_t_eq(ptr noundef nonnull @.str.11, i32 noundef 83, ptr noundef nonnull @.str.24, ptr noundef nonnull @.str.25, i64 noundef %1, i64 noundef 0) #4
  %.not = icmp eq i32 %2, 0
  br i1 %.not, label %.loopexit, label %3

3:                                                ; preds = %0
  %4 = tail call ptr @ossl_sa_new() #4
  %5 = tail call i32 @test_ptr(ptr noundef nonnull @.str.11, i32 noundef 84, ptr noundef nonnull @.str.12, ptr noundef %4) #4
  %.not11 = icmp eq i32 %5, 0
  br i1 %.not11, label %.loopexit, label %6

6:                                                ; preds = %3
  %7 = tail call i64 @ossl_sa_num(ptr noundef %4) #4
  %8 = tail call i32 @test_size_t_eq(ptr noundef nonnull @.str.11, i32 noundef 85, ptr noundef nonnull @.str.26, ptr noundef nonnull @.str.25, i64 noundef %7, i64 noundef 0) #4
  %.not12 = icmp eq i32 %8, 0
  br i1 %.not12, label %.loopexit, label %.preheader

9:                                                ; preds = %20
  %10 = add nuw nsw i64 %.0915, 1
  %exitcond.not = icmp eq i64 %10, 16
  br i1 %exitcond.not, label %.loopexit, label %.preheader, !llvm.loop !15

.preheader:                                       ; preds = %6, %9
  %.0915 = phi i64 [ %10, %9 ], [ 0, %6 ]
  %11 = getelementptr inbounds nuw [16 x %struct.anon.0], ptr @test_sparse_array_num.cases, i64 0, i64 %.0915
  %12 = getelementptr inbounds nuw i8, ptr %11, i64 8
  %13 = load i64, ptr %12, align 8, !tbaa !16
  %14 = getelementptr inbounds nuw i8, ptr %11, i64 16
  %15 = load ptr, ptr %14, align 8, !tbaa !18
  %16 = tail call i32 @ossl_sa_set(ptr noundef %4, i64 noundef %13, ptr noundef %15) #4
  %17 = icmp ne i32 %16, 0
  %18 = zext i1 %17 to i32
  %19 = tail call i32 @test_true(ptr noundef nonnull @.str.11, i32 noundef 88, ptr noundef nonnull @.str.16, i32 noundef %18) #4
  %.not13 = icmp eq i32 %19, 0
  br i1 %.not13, label %.loopexit, label %20

20:                                               ; preds = %.preheader
  %21 = tail call i64 @ossl_sa_num(ptr noundef %4) #4
  %22 = load i64, ptr %11, align 8, !tbaa !19
  %23 = tail call i32 @test_size_t_eq(ptr noundef nonnull @.str.11, i32 noundef 89, ptr noundef nonnull @.str.26, ptr noundef nonnull @.str.27, i64 noundef %21, i64 noundef %22) #4
  %.not14 = icmp eq i32 %23, 0
  br i1 %.not14, label %.loopexit, label %9

.loopexit:                                        ; preds = %9, %.preheader, %20, %0, %3, %6
  %.010 = phi ptr [ %4, %6 ], [ %4, %3 ], [ null, %0 ], [ %4, %20 ], [ %4, %.preheader ], [ %4, %9 ]
  %.0 = phi i32 [ 0, %6 ], [ 0, %3 ], [ 0, %0 ], [ 1, %9 ], [ 0, %.preheader ], [ 0, %20 ]
  tail call void @ossl_sa_free(ptr noundef %.010) #4
  ret i32 %.0
}